target datalayout = "e-m:e-p270:32:32-p271:32:32-p272:64:64-i64:64-i128:128-f80:128-n8:16:32:64-S128"
target triple = "x86_64-pc-linux-gnu"

%class.EnumRange = type { i32, i32 }
%class.WeakProcessorTimes = type { i32, i32, double, [10 x ptr] }
%class.WorkerDataArray = type { ptr, i32, ptr, ptr, i8, [9 x ptr] }

; Function Attrs: mustprogress nounwind uwtable
define linkonce_odr hidden noundef i32 @_ZN20PrimitiveConversions4castIjjTnNSt9enable_ifIXcvbeqstT_stT0_EiE4typeELi0ETnNS1_IXcvbsr3std11is_integralIS2_EE5valueEiE4typeELi0ETnNS1_IXcvbsr3std11is_integralIS3_EE5valueEiE4typeELi0EEES2_S3_(i32 noundef %0) #1 comdat align 2 {
  %2 = alloca i32, align 4
  store i32 %0, ptr %2, align 4
  %3 = load i32, ptr %2, align 4
  ret i32 %3
}

; Function Attrs: mustprogress nounwind uwtable
define linkonce_odr hidden noundef i32 @_ZN20PrimitiveConversions4castIN13OopStorageSet6WeakIdEjTnNSt9enable_ifIXcvbcl10check_castIT_T0_EEEiE4typeELi0ETnNS3_IXcvbsr3std7is_enumIS4_EE5valueEiE4typeELi0EEES4_S5_(i32 noundef %0) #1 comdat align 2 {
  %2 = alloca i32, align 4
  store i32 %0, ptr %2, align 4
  %3 = load i32, ptr %2, align 4
  %4 = call noundef i32 @_ZN20PrimitiveConversions4castIjjTnNSt9enable_ifIXcvbeqstT_stT0_EiE4typeELi0ETnNS1_IXcvbsr3std11is_integralIS2_EE5valueEiE4typeELi0ETnNS1_IXcvbsr3std11is_integralIS3_EE5valueEiE4typeELi0EEES2_S3_(i32 noundef %3)
  ret i32 %4
}

; Function Attrs: mustprogress nounwind uwtable
define linkonce_odr hidden void @_ZNK9EnumRangeIN13OopStorageSet6WeakIdEE16assert_not_emptyEv(ptr noundef nonnull align 4 dereferenceable(8) %0) #1 comdat align 2 {
  %2 = alloca ptr, align 8
  store ptr %0, ptr %2, align 8
  ret void
}

; Function Attrs: mustprogress nounwind uwtable
define linkonce_odr hidden void @_ZN9EnumRangeIN13OopStorageSet6WeakIdEEC2ES1_S1_(ptr noundef nonnull align 4 dereferenceable(8) %0, i32 noundef %1, i32 noundef %2) unnamed_addr #1 comdat align 2 {
  %4 = alloca ptr, align 8
  %5 = alloca i32, align 4
  %6 = alloca i32, align 4
  store ptr %0, ptr %4, align 8
  store i32 %1, ptr %5, align 4
  store i32 %2, ptr %6, align 4
  %7 = load ptr, ptr %4, align 8
  %8 = getelementptr inbounds %class.EnumRange, ptr %7, i32 0, i32 0
  %9 = load i32, ptr %5, align 4
  %10 = call noundef i32 @_ZN19EnumIterationTraitsIN13OopStorageSet6WeakIdEE16underlying_valueES1_(i32 noundef %9)
  store i32 %10, ptr %8, align 4
  %11 = getelementptr inbounds %class.EnumRange, ptr %7, i32 0, i32 1
  %12 = load i32, ptr %6, align 4
  %13 = call noundef i32 @_ZN19EnumIterationTraitsIN13OopStorageSet6WeakIdEE16underlying_valueES1_(i32 noundef %12)
  store i32 %13, ptr %11, align 4
  %14 = load i32, ptr %5, align 4
  %15 = call noundef i32 @_ZN20PrimitiveConversions4castIN13OopStorageSet6WeakIdEjTnNSt9enable_ifIXcvbcl10check_castIT_T0_EEEiE4typeELi0ETnNS3_IXcvbsr3std7is_enumIS4_EE5valueEiE4typeELi0EEES4_S5_(i32 noundef 5)
  %16 = call noundef i32 @_ZN20PrimitiveConversions4castIN13OopStorageSet6WeakIdEjTnNSt9enable_ifIXcvbcl10check_castIT_T0_EEEiE4typeELi0ETnNS3_IXcvbsr3std7is_enumIS4_EE5valueEiE4typeELi0EEES4_S5_(i32 noundef 15)
  call void @_ZN19EnumIterationTraitsIN13OopStorageSet6WeakIdEE15assert_in_rangeIS1_EEvT_S4_S4_(i32 noundef %14, i32 noundef %15, i32 noundef %16)
  %17 = load i32, ptr %6, align 4
  %18 = call noundef i32 @_ZN20PrimitiveConversions4castIN13OopStorageSet6WeakIdEjTnNSt9enable_ifIXcvbcl10check_castIT_T0_EEEiE4typeELi0ETnNS3_IXcvbsr3std7is_enumIS4_EE5valueEiE4typeELi0EEES4_S5_(i32 noundef 5)
  %19 = call noundef i32 @_ZN20PrimitiveConversions4castIN13OopStorageSet6WeakIdEjTnNSt9enable_ifIXcvbcl10check_castIT_T0_EEEiE4typeELi0ETnNS3_IXcvbsr3std7is_enumIS4_EE5valueEiE4typeELi0EEES4_S5_(i32 noundef 15)
  call void @_ZN19EnumIterationTraitsIN13OopStorageSet6WeakIdEE15assert_in_rangeIS1_EEvT_S4_S4_(i32 noundef %17, i32 noundef %18, i32 noundef %19)
  ret void
}

; Function Attrs: mustprogress nounwind uwtable
define linkonce_odr hidden noundef i32 @_ZN19EnumIterationTraitsIN13OopStorageSet6WeakIdEE16underlying_valueES1_(i32 noundef %0) #1 comdat align 2 {
  %2 = alloca i32, align 4
  store i32 %0, ptr %2, align 4
  %3 = load i32, ptr %2, align 4
  ret i32 %3
}

; Function Attrs: mustprogress nounwind uwtable
define linkonce_odr hidden void @_ZN19EnumIterationTraitsIN13OopStorageSet6WeakIdEE15assert_in_rangeIS1_EEvT_S4_S4_(i32 noundef %0, i32 noundef %1, i32 noundef %2) #1 comdat align 2 {
  %4 = alloca i32, align 4
  %5 = alloca i32, align 4
  %6 = alloca i32, align 4
  store i32 %0, ptr %4, align 4
  store i32 %1, ptr %5, align 4
  store i32 %2, ptr %6, align 4
  ret void
}

; Function Attrs: mustprogress nounwind uwtable
define linkonce_odr hidden noundef i32 @_ZNK9EnumRangeIN13OopStorageSet6WeakIdEE4lastEv(ptr noundef nonnull align 4 dereferenceable(8) %0) #1 comdat align 2 {
  %2 = alloca ptr, align 8
  store ptr %0, ptr %2, align 8
  %3 = load ptr, ptr %2, align 8
  call void @_ZNK9EnumRangeIN13OopStorageSet6WeakIdEE16assert_not_emptyEv(ptr noundef nonnull align 4 dereferenceable(8) %3)
  %4 = getelementptr inbounds %class.EnumRange, ptr %3, i32 0, i32 1
  %5 = load i32, ptr %4, align 4
  %6 = sub i32 %5, 1
  %7 = call noundef i32 @_ZN19EnumIterationTraitsIN13OopStorageSet6WeakIdEE10enumeratorEj(i32 noundef %6)
  ret i32 %7
}

; Function Attrs: mustprogress nounwind uwtable
define linkonce_odr hidden noundef i32 @_ZNK9EnumRangeIN13OopStorageSet6WeakIdEE5firstEv(ptr noundef nonnull align 4 dereferenceable(8) %0) #1 comdat align 2 {
  %2 = alloca ptr, align 8
  store ptr %0, ptr %2, align 8
  %3 = load ptr, ptr %2, align 8
  call void @_ZNK9EnumRangeIN13OopStorageSet6WeakIdEE16assert_not_emptyEv(ptr noundef nonnull align 4 dereferenceable(8) %3)
  %4 = getelementptr inbounds %class.EnumRange, ptr %3, i32 0, i32 0
  %5 = load i32, ptr %4, align 4
  %6 = call noundef i32 @_ZN19EnumIterationTraitsIN13OopStorageSet6WeakIdEE10enumeratorEj(i32 noundef %5)
  ret i32 %6
}

; Function Attrs: mustprogress nounwind uwtable
define linkonce_odr hidden void @_ZN9EnumRangeIN13OopStorageSet6WeakIdEEC2ES1_(ptr noundef nonnull align 4 dereferenceable(8) %0, i32 noundef %1) unnamed_addr #1 comdat align 2 {
  %3 = alloca ptr, align 8
  %4 = alloca i32, align 4
  store ptr %0, ptr %3, align 8
  store i32 %1, ptr %4, align 4
  %5 = load ptr, ptr %3, align 8
  %6 = load i32, ptr %4, align 4
  %7 = call noundef i32 @_ZN19EnumIterationTraitsIN13OopStorageSet6WeakIdEE10enumeratorEj(i32 noundef 15)
  call void @_ZN9EnumRangeIN13OopStorageSet6WeakIdEEC2ES1_S1_(ptr noundef nonnull align 4 dereferenceable(8) %5, i32 noundef %6, i32 noundef %7)
  ret void
}

; Function Attrs: mustprogress nounwind uwtable
define linkonce_odr hidden noundef i32 @_ZN19EnumIterationTraitsIN13OopStorageSet6WeakIdEE10enumeratorEj(i32 noundef %0) #1 comdat align 2 {
  %2 = alloca i32, align 4
  store i32 %0, ptr %2, align 4
  %3 = load i32, ptr %2, align 4
  ret i32 %3
}

; Function Attrs: mustprogress nounwind uwtable
define linkonce_odr hidden noundef i64 @_ZNK9EnumRangeIN13OopStorageSet6WeakIdEE5indexES1_(ptr noundef nonnull align 4 dereferenceable(8) %0, i32 noundef %1) #1 comdat align 2 {
  %3 = alloca ptr, align 8
  %4 = alloca i32, align 4
  store ptr %0, ptr %3, align 8
  store i32 %1, ptr %4, align 4
  %5 = load ptr, ptr %3, align 8
  %6 = load i32, ptr %4, align 4
  %7 = call noundef i32 @_ZNK9EnumRangeIN13OopStorageSet6WeakIdEE5firstEv(ptr noundef nonnull align 4 dereferenceable(8) %5)
  %8 = call noundef i32 @_ZNK9EnumRangeIN13OopStorageSet6WeakIdEE4lastEv(ptr noundef nonnull align 4 dereferenceable(8) %5)
  call void @_ZN19EnumIterationTraitsIN13OopStorageSet6WeakIdEE15assert_in_rangeIS1_EEvT_S4_S4_(i32 noundef %6, i32 noundef %7, i32 noundef %8)
  %9 = load i32, ptr %4, align 4
  %10 = call noundef i32 @_ZN19EnumIterationTraitsIN13OopStorageSet6WeakIdEE16underlying_valueES1_(i32 noundef %9)
  %11 = getelementptr inbounds %class.EnumRange, ptr %5, i32 0, i32 0
  %12 = load i32, ptr %11, align 4
  %13 = sub i32 %10, %12
  %14 = zext i32 %13 to i64
  ret i64 %14
}

; Function Attrs: mustprogress nounwind uwtable
define linkonce_odr hidden void @_ZN9EnumRangeIN13OopStorageSet6WeakIdEEC2Ev(ptr noundef nonnull align 4 dereferenceable(8) %0) unnamed_addr #1 comdat align 2 {
  %2 = alloca ptr, align 8
  store ptr %0, ptr %2, align 8
  %3 = load ptr, ptr %2, align 8
  %4 = call noundef i32 @_ZN19EnumIterationTraitsIN13OopStorageSet6WeakIdEE10enumeratorEj(i32 noundef 5)
  call void @_ZN9EnumRangeIN13OopStorageSet6WeakIdEEC2ES1_(ptr noundef nonnull align 4 dereferenceable(8) %3, i32 noundef %4)
  ret void
}

; Function Attrs: mustprogress nounwind uwtable
define linkonce_odr hidden noundef double @_ZNK15WorkerDataArrayIdE3getEj(ptr noundef nonnull align 8 dereferenceable(112) %0, i32 noundef %1) #1 comdat align 2 {
  %3 = alloca ptr, align 8
  %4 = alloca i32, align 4
  store ptr %0, ptr %3, align 8
  store i32 %1, ptr %4, align 4
  %5 = load ptr, ptr %3, align 8
  %6 = getelementptr inbounds %class.WorkerDataArray, ptr %5, i32 0, i32 0
  %7 = load ptr, ptr %6, align 8
  %8 = load i32, ptr %4, align 4
  %9 = zext i32 %8 to i64
  %10 = getelementptr inbounds double, ptr %7, i64 %9
  %11 = load double, ptr %10, align 8
  ret double %11
}

; Function Attrs: mustprogress nounwind uwtable
define hidden noundef ptr @_ZNK18WeakProcessorTimes11worker_dataEN13OopStorageSet6WeakIdE(ptr noundef nonnull align 8 dereferenceable(96) %0, i32 noundef %1) #1 align 2 {
  %3 = alloca ptr, align 8
  %4 = alloca i32, align 4
  %5 = alloca i64, align 8
  %6 = alloca %class.EnumRange, align 4
  store ptr %0, ptr %3, align 8
  store i32 %1, ptr %4, align 4
  %7 = load ptr, ptr %3, align 8
  call void @_ZN9EnumRangeIN13OopStorageSet6WeakIdEEC2Ev(ptr noundef nonnull align 4 dereferenceable(8) %6)
  %8 = load i32, ptr %4, align 4
  %9 = call noundef i64 @_ZNK9EnumRangeIN13OopStorageSet6WeakIdEE5indexES1_(ptr noundef nonnull align 4 dereferenceable(8) %6, i32 noundef %8)
  store i64 %9, ptr %5, align 8
  %10 = getelementptr inbounds %class.WeakProcessorTimes, ptr %7, i32 0, i32 3
  %11 = load i64, ptr %5, align 8
  %12 = getelementptr inbounds [10 x ptr], ptr %10, i64 0, i64 %11
  %13 = load ptr, ptr %12, align 8
  ret ptr %13
}

; Function Attrs: mustprogress nounwind uwtable
define hidden noundef double @_ZNK18WeakProcessorTimes15worker_time_secEjN13OopStorageSet6WeakIdE(ptr noundef nonnull align 8 dereferenceable(96) %0, i32 noundef %1, i32 noundef %2) #1 align 2 {
  %4 = alloca ptr, align 8
  %5 = alloca i32, align 4
  %6 = alloca i32, align 4
  store ptr %0, ptr %4, align 8
  store i32 %1, ptr %5, align 4
  store i32 %2, ptr %6, align 4
  %7 = load ptr, ptr %4, align 8
  %8 = load i32, ptr %6, align 4
  %9 = call noundef ptr @_ZNK18WeakProcessorTimes11worker_dataEN13OopStorageSet6WeakIdE(ptr noundef nonnull align 8 dereferenceable(96) %7, i32 noundef %8)
  %10 = load i32, ptr %5, align 4
  %11 = call noundef double @_ZNK15WorkerDataArrayIdE3getEj(ptr noundef nonnull align 8 dereferenceable(112) %9, i32 noundef %10)
  ret double %11
}