; Function Attrs: mustprogress nofree norecurse nosync nounwind willreturn memory(read, inaccessiblemem: none) uwtable
define hidden noundef double @_ZNK18WeakProcessorTimes15worker_time_secEjN13OopStorageSet6WeakIdE(ptr nocapture noundef nonnull readonly align 8 dereferenceable(96) %0, i32 noundef %1, i32 noundef %2) local_unnamed_addr #5 align 2 {
  %4 = add i32 %2, -5
  %5 = zext i32 %4 to i64
  %6 = getelementptr inbounds i8, ptr %0, i64 16
  %7 = getelementptr inbounds [10 x ptr], ptr %6, i64 0, i64 %5
  %8 = load ptr, ptr %7, align 8
  %9 = load ptr, ptr %8, align 8
  %10 = zext i32 %1 to i64
  %11 = getelementptr inbounds double, ptr %9, i64 %10
  %12 = load double, ptr %11, align 8
  ret double %12
}